; Function Attrs: mustprogress uwtable
define void @_ZN4YAML14EmitFromEvents8OnScalarERKNS_4MarkERKNSt7__cxx1112basic_stringIcSt11char_traitsIcESaIcEEEmSB_(ptr noundef nonnull readonly align 8 captures(none) dereferenceable(96) %0, ptr nonnull readnone align 1 captures(none) %1, ptr noundef nonnull align 8 dereferenceable(32) %2, i64 noundef %3, ptr noundef nonnull readonly align 8 captures(none) dereferenceable(32) %4) unnamed_addr #0 align 2 {
  %6 = getelementptr inbounds nuw i8, ptr %0, i64 64
  %7 = getelementptr inbounds nuw i8, ptr %0, i64 32
  %8 = load ptr, ptr %6, align 8, !tbaa !10
  %9 = load ptr, ptr %7, align 8, !tbaa !10
  %10 = icmp eq ptr %8, %9
  br i1 %10, label %_ZN4YAML14EmitFromEvents9BeginNodeEv.exit, label %11

11:                                               ; preds = %5
  %12 = getelementptr inbounds nuw i8, ptr %0, i64 72
  %13 = load ptr, ptr %12, align 8, !tbaa !13, !noalias !89
  %14 = icmp eq ptr %8, %13
  br i1 %14, label %15, label %_ZNSt5stackIN4YAML14EmitFromEvents5State5valueESt5dequeIS3_SaIS3_EEE3topEv.exit.i

15:                                               ; preds = %11
  %16 = getelementptr inbounds nuw i8, ptr %0, i64 88
  %17 = load ptr, ptr %16, align 8, !tbaa !17, !noalias !89
  %18 = getelementptr inbounds i8, ptr %17, i64 -8
  %19 = load ptr, ptr %18, align 8, !tbaa !18
  %20 = getelementptr inbounds nuw i8, ptr %19, i64 512
  br label %_ZNSt5stackIN4YAML14EmitFromEvents5State5valueESt5dequeIS3_SaIS3_EEE3topEv.exit.i

_ZNSt5stackIN4YAML14EmitFromEvents5State5valueESt5dequeIS3_SaIS3_EEE3topEv.exit.i: ; preds = %15, %11
  %21 = phi ptr [ %20, %15 ], [ %8, %11 ]
  %22 = getelementptr inbounds i8, ptr %21, i64 -4
  %23 = load i32, ptr %22, align 4, !tbaa !19
  switch i32 %23, label %_ZN4YAML14EmitFromEvents9BeginNodeEv.exit [
    i32 1, label %24
    i32 2, label %31
  ]

24:                                               ; preds = %_ZNSt5stackIN4YAML14EmitFromEvents5State5valueESt5dequeIS3_SaIS3_EEE3topEv.exit.i
  %25 = getelementptr inbounds nuw i8, ptr %0, i64 8
  %26 = load ptr, ptr %25, align 8, !tbaa !21
  %27 = tail call noundef nonnull align 8 dereferenceable(72) ptr @_ZN4YAML7Emitter13SetLocalValueENS_13EMITTER_MANIPE(ptr noundef nonnull align 8 dereferenceable(72) %26, i32 noundef 32)
  %28 = load ptr, ptr %6, align 8, !tbaa !10, !noalias !92
  %29 = load ptr, ptr %12, align 8, !tbaa !13, !noalias !92
  %30 = icmp eq ptr %28, %29
  br i1 %30, label %.sink.split.sink.split.i, label %.sink.split.i

31:                                               ; preds = %_ZNSt5stackIN4YAML14EmitFromEvents5State5valueESt5dequeIS3_SaIS3_EEE3topEv.exit.i
  %32 = getelementptr inbounds nuw i8, ptr %0, i64 8
  %33 = load ptr, ptr %32, align 8, !tbaa !21
  %34 = tail call noundef nonnull align 8 dereferenceable(72) ptr @_ZN4YAML7Emitter13SetLocalValueENS_13EMITTER_MANIPE(ptr noundef nonnull align 8 dereferenceable(72) %33, i32 noundef 33)
  %35 = load ptr, ptr %6, align 8, !tbaa !10, !noalias !95
  %36 = load ptr, ptr %12, align 8, !tbaa !13, !noalias !95
  %37 = icmp eq ptr %35, %36
  br i1 %37, label %.sink.split.sink.split.i, label %.sink.split.i

.sink.split.sink.split.i:                         ; preds = %31, %24
  %.sink.ph.i = phi i32 [ 2, %24 ], [ 1, %31 ]
  %38 = getelementptr inbounds nuw i8, ptr %0, i64 88
  %39 = load ptr, ptr %38, align 8, !tbaa !17, !noalias !36
  %40 = getelementptr inbounds i8, ptr %39, i64 -8
  %41 = load ptr, ptr %40, align 8, !tbaa !18
  %42 = getelementptr inbounds nuw i8, ptr %41, i64 512
  br label %.sink.split.i

.sink.split.i:                                    ; preds = %.sink.split.sink.split.i, %31, %24
  %.sink4.i = phi ptr [ %28, %24 ], [ %35, %31 ], [ %42, %.sink.split.sink.split.i ]
  %.sink.i = phi i32 [ 2, %24 ], [ 1, %31 ], [ %.sink.ph.i, %.sink.split.sink.split.i ]
  %43 = getelementptr inbounds i8, ptr %.sink4.i, i64 -4
  store i32 %.sink.i, ptr %43, align 4, !tbaa !19
  br label %_ZN4YAML14EmitFromEvents9BeginNodeEv.exit

_ZN4YAML14EmitFromEvents9BeginNodeEv.exit:        ; preds = %5, %_ZNSt5stackIN4YAML14EmitFromEvents5State5valueESt5dequeIS3_SaIS3_EEE3topEv.exit.i, %.sink.split.i
  tail call void @_ZN4YAML14EmitFromEvents9EmitPropsERKNSt7__cxx1112basic_stringIcSt11char_traitsIcESaIcEEEm(ptr noundef nonnull align 8 dereferenceable(96) %0, ptr noundef nonnull align 8 dereferenceable(32) %2, i64 noundef %3)
  %44 = getelementptr inbounds nuw i8, ptr %0, i64 8
  %45 = load ptr, ptr %44, align 8, !tbaa !21
  %46 = load ptr, ptr %4, align 8, !tbaa !43
  %47 = getelementptr inbounds nuw i8, ptr %4, i64 8
  %48 = load i64, ptr %47, align 8, !tbaa !40
  %49 = tail call noundef nonnull align 8 dereferenceable(72) ptr @_ZN4YAML7Emitter5WriteEPKcm(ptr noundef nonnull align 8 dereferenceable(72) %45, ptr noundef %46, i64 noundef %48)
  ret void
}